(dp0
S'shape'
p1
(cnumpy.core.multiarray
scalar
p2
(cnumpy
dtype
p3
(S'f4'
p4
I0
I1
tp5
Rp6
(I3
S'<'
p7
NNNI-1
I-1
I0
tp8
bS'\x1e\xcd\xcc>'
p9
tp10
Rp11
g2
(g6
S'\xd2\x8d\xcd>'
p12
tp13
Rp14
tp15
sS'tapering'
p16
(g2
(g6
S'\x14\xc0\xf3\xbd'
p17
tp18
Rp19
g2
(g6
S'&\x8c\xc7\xbd'
p20
tp21
Rp22
tp23
sS'probability'
p24
(g2
(g6
S'\xfa\xff\x7f?'
p25
tp26
Rp27
tp28
sS'color'
p29
NsS'rotation'
p30
(g2
(g6
S'|-\xd89'
p31
tp32
Rp33
g2
(g6
S' \xa8\x18\xbc'
p34
tp35
Rp36
g2
(g6
S'DC\xd8\xba'
p37
tp38
Rp39
g2
(g6
S'\x10\xfd\x7f?'
p40
tp41
Rp42
tp43
sS'size'
p44
(g2
(g6
S'\x02gW>'
p45
tp46
Rp47
g2
(g6
S'\xed]\xfa<'
p48
tp49
Rp50
g2
(g6
S'\xf4\xc0<>'
p51
tp52
Rp53
tp54
sS'location'
p55
(g2
(g6
S'\x1d\x06\xc0;'
p56
tp57
Rp58
g2
(g6
S'\xcf\x9e\x16='
p59
tp60
Rp61
g2
(g6
S'WE\x17\xbd'
p62
tp63
Rp64
tp65
s.