(dp0
S'shape'
p1
(cnumpy.core.multiarray
scalar
p2
(cnumpy
dtype
p3
(S'f4'
p4
I0
I1
tp5
Rp6
(I3
S'<'
p7
NNNI-1
I-1
I0
tp8
bS'\xf2\xcc\xcc>'
p9
tp10
Rp11
g2
(g6
S'F\n\xd4>'
p12
tp13
Rp14
tp15
sS'tapering'
p16
(g2
(g6
S'*\x0b\x86\xbd'
p17
tp18
Rp19
g2
(g6
S':e9\xbe'
p20
tp21
Rp22
tp23
sS'probability'
p24
(g2
(g6
S'\xfe\xff\x7f?'
p25
tp26
Rp27
tp28
sS'color'
p29
NsS'rotation'
p30
(g2
(g6
S'~\xa8\x01\xbf'
p31
tp32
Rp33
g2
(g6
S'\xa9\xb6\xf3\xbe'
p34
tp35
Rp36
g2
(g6
S'f\x19\xfb\xbe'
p37
tp38
Rp39
g2
(g6
S'\xa1\x95\x06\xbf'
p40
tp41
Rp42
tp43
sS'size'
p44
(g2
(g6
S'\x0c\x9f:>'
p45
tp46
Rp47
g2
(g6
S'\xf2L\r>'
p48
tp49
Rp50
g2
(g6
S'\xc4\xc2\xf5<'
p51
tp52
Rp53
tp54
sS'location'
p55
(g2
(g6
S'+a\xf8\xba'
p56
tp57
Rp58
g2
(g6
S'\xb0\x80\xb3<'
p59
tp60
Rp61
g2
(g6
S'\xae\x0er\xbc'
p62
tp63
Rp64
tp65
s.