(dp0
S'shape'
p1
(cnumpy.core.multiarray
scalar
p2
(cnumpy
dtype
p3
(S'f4'
p4
I0
I1
tp5
Rp6
(I3
S'<'
p7
NNNI-1
I-1
I0
tp8
bS'm\xcd\xcc>'
p9
tp10
Rp11
g2
(g6
S'\xbc\xd3\xcc>'
p12
tp13
Rp14
tp15
sS'tapering'
p16
(g2
(g6
S'\xb5\x8e\xf7\xbe'
p17
tp18
Rp19
g2
(g6
S'\xd6v\x88>'
p20
tp21
Rp22
tp23
sS'probability'
p24
(g2
(g6
S'\xfc\xff\x7f?'
p25
tp26
Rp27
tp28
sS'color'
p29
NsS'rotation'
p30
(g2
(g6
S'\x12\x06\xea:'
p31
tp32
Rp33
g2
(g6
S'h\xce\xad\xbb'
p34
tp35
Rp36
g2
(g6
S'a\x8e\xdc\xbd'
p37
tp38
Rp39
g2
(g6
S'\xd2\x81~?'
p40
tp41
Rp42
tp43
sS'size'
p44
(g2
(g6
S'b\xb4C>'
p45
tp46
Rp47
g2
(g6
S'$Y\xc6='
p48
tp49
Rp50
g2
(g6
S'\xf6\xc2\xf5<'
p51
tp52
Rp53
tp54
sS'location'
p55
(g2
(g6
S'+\xbd\xb6\xbb'
p56
tp57
Rp58
g2
(g6
S'\xa5hd>'
p59
tp60
Rp61
g2
(g6
S'\xd6\xed\x1a>'
p62
tp63
Rp64
tp65
s.