(dp0
S'shape'
p1
(cnumpy.core.multiarray
scalar
p2
(cnumpy
dtype
p3
(S'f4'
p4
I0
I1
tp5
Rp6
(I3
S'<'
p7
NNNI-1
I-1
I0
tp8
bS'{\x0b\xb5?'
p9
tp10
Rp11
g2
(g6
S'\x94P\xaf?'
p12
tp13
Rp14
tp15
sS'tapering'
p16
(g2
(g6
S'\xc6=\xd1\xbe'
p17
tp18
Rp19
g2
(g6
S'f\x01]>'
p20
tp21
Rp22
tp23
sS'probability'
p24
(g2
(g6
S'\xa4L$1'
p25
tp26
Rp27
tp28
sS'color'
p29
NsS'rotation'
p30
(g2
(g6
S'\rI\x11?'
p31
tp32
Rp33
g2
(g6
S'\xcc\x93\x04\xbf'
p34
tp35
Rp36
g2
(g6
S'\x02\xbc\x97='
p37
tp38
Rp39
g2
(g6
S';\xc3"\xbf'
p40
tp41
Rp42
tp43
sS'size'
p44
(g2
(g6
S'\xe7\xad\x07?'
p45
tp46
Rp47
g2
(g6
S'\xe9\xad\x07?'
p48
tp49
Rp50
g2
(g6
S'\xe8\xad\x07?'
p51
tp52
Rp53
tp54
sS'location'
p55
(g2
(g6
S'xaY<'
p56
tp57
Rp58
g2
(g6
S'P\xdb\x87\xbd'
p59
tp60
Rp61
g2
(g6
S'\xe7w\x88<'
p62
tp63
Rp64
tp65
s.