(dp0
S'shape'
p1
(cnumpy.core.multiarray
scalar
p2
(cnumpy
dtype
p3
(S'f4'
p4
I0
I1
tp5
Rp6
(I3
S'<'
p7
NNNI-1
I-1
I0
tp8
bS'\x06\x93\xbf?'
p9
tp10
Rp11
g2
(g6
S'\x12q3?'
p12
tp13
Rp14
tp15
sS'tapering'
p16
(g2
(g6
S'"\xdb\xe2\xbe'
p17
tp18
Rp19
g2
(g6
S'K?\xc1>'
p20
tp21
Rp22
tp23
sS'probability'
p24
(g2
(g6
S'\x00\x00\x80?'
p25
tp26
Rp27
tp28
sS'color'
p29
NsS'rotation'
p30
(g2
(g6
S'^\xe1\n\xbf'
p31
tp32
Rp33
g2
(g6
S'y\x8d\xe1\xbe'
p34
tp35
Rp36
g2
(g6
S'Z\x8a\x04?'
p37
tp38
Rp39
g2
(g6
S'\x13\xb0\xfc\xbe'
p40
tp41
Rp42
tp43
sS'size'
p44
(g2
(g6
S'\xeb\xba\x98>'
p45
tp46
Rp47
g2
(g6
S'*w\xf6<'
p48
tp49
Rp50
g2
(g6
S'\xf3\xc2\xf5<'
p51
tp52
Rp53
tp54
sS'location'
p55
(g2
(g6
S'\xe0YV\xbe'
p56
tp57
Rp58
g2
(g6
S'^\xde\xcc\xbd'
p59
tp60
Rp61
g2
(g6
S'\x9b\xb8?\xbe'
p62
tp63
Rp64
tp65
s.