(dp0
S'shape'
p1
(cnumpy.core.multiarray
scalar
p2
(cnumpy
dtype
p3
(S'f4'
p4
I0
I1
tp5
Rp6
(I3
S'<'
p7
NNNI-1
I-1
I0
tp8
bS'\x00\xd8\xcc>'
p9
tp10
Rp11
g2
(g6
S'f\xa0\xcf>'
p12
tp13
Rp14
tp15
sS'tapering'
p16
(g2
(g6
S'\xd9\xd8\xca='
p17
tp18
Rp19
g2
(g6
S'\xc6\x13\n='
p20
tp21
Rp22
tp23
sS'probability'
p24
(g2
(g6
S'\xd4\xff\x7f?'
p25
tp26
Rp27
tp28
sS'color'
p29
(g2
(g3
(S'f8'
p30
I0
I1
tp31
Rp32
(I3
S'<'
p33
NNNI-1
I-1
I0
tp34
bS'\x7f\x7f\x7f\x7f\x7f\x7f\xef?'
p35
tp36
Rp37
g2
(g32
S'SSSSSS\xe3?'
p38
tp39
Rp40
g2
(g32
S'333333\xe3?'
p41
tp42
Rp43
F1.0
tp44
sS'rotation'
p45
(g2
(g6
S']g\xb3;'
p46
tp47
Rp48
g2
(g6
S'x 5\xbf'
p49
tp50
Rp51
g2
(g6
S'\xd4\xe74?'
p52
tp53
Rp54
g2
(g6
S'\xc0\x08\x07\xbb'
p55
tp56
Rp57
tp58
sS'size'
p59
(g2
(g6
S'\x80J\x01='
p60
tp61
Rp62
g2
(g6
S'm\xa0">'
p63
tp64
Rp65
g2
(g6
S'Z\xef\n>'
p66
tp67
Rp68
tp69
sS'location'
p70
(g2
(g6
S'~~\x14:'
p71
tp72
Rp73
g2
(g6
S'\xda\xf3\xa1='
p74
tp75
Rp76
g2
(g6
S'$\xe7\x86\xbd'
p77
tp78
Rp79
tp80
s.