(dp0
S'shape'
p1
(cnumpy.core.multiarray
scalar
p2
(cnumpy
dtype
p3
(S'f4'
p4
I0
I1
tp5
Rp6
(I3
S'<'
p7
NNNI-1
I-1
I0
tp8
bS'\xdb\x9c\xd6>'
p9
tp10
Rp11
g2
(g6
S'\x1b\xa1\xd3>'
p12
tp13
Rp14
tp15
sS'tapering'
p16
(g2
(g6
S'\xd3\xdb\xe1>'
p17
tp18
Rp19
g2
(g6
S'A\x14\x12>'
p20
tp21
Rp22
tp23
sS'probability'
p24
(g2
(g6
S'\xe6\xff\x7f?'
p25
tp26
Rp27
tp28
sS'color'
p29
(g2
(g3
(S'f8'
p30
I0
I1
tp31
Rp32
(I3
S'<'
p33
NNNI-1
I-1
I0
tp34
bS'\x7f\x7f\x7f\x7f\x7f\x7f\xef?'
p35
tp36
Rp37
g2
(g32
S'SSSSSS\xe3?'
p38
tp39
Rp40
g2
(g32
S'333333\xe3?'
p41
tp42
Rp43
F1.0
tp44
sS'rotation'
p45
(g2
(g6
S'\xd7\xe6*\xbe'
p46
tp47
Rp48
g2
(g6
S'U\xf1T?'
p49
tp50
Rp51
g2
(g6
S'\xc5\xb8\x1b>'
p52
tp53
Rp54
g2
(g6
S'\x17\xcf\x01\xbf'
p55
tp56
Rp57
tp58
sS'size'
p59
(g2
(g6
S'-\x8b%>'
p60
tp61
Rp62
g2
(g6
S'\x83c\xfa<'
p63
tp64
Rp65
g2
(g6
S'\xb06\xd8='
p66
tp67
Rp68
tp69
sS'location'
p70
(g2
(g6
S'\x85\xc2\x86='
p71
tp72
Rp73
g2
(g6
S'\xc8\x1a\xe0='
p74
tp75
Rp76
g2
(g6
S'"\xc3\xce<'
p77
tp78
Rp79
tp80
s.