(dp0
S'shape'
p1
(cnumpy.core.multiarray
scalar
p2
(cnumpy
dtype
p3
(S'f4'
p4
I0
I1
tp5
Rp6
(I3
S'<'
p7
NNNI-1
I-1
I0
tp8
bS',\xa5\xbf?'
p9
tp10
Rp11
g2
(g6
S'\xdaD\xa9?'
p12
tp13
Rp14
tp15
sS'tapering'
p16
(g2
(g6
S'\xe1\x9e\xd1\xbd'
p17
tp18
Rp19
g2
(g6
S'L\x08\xea='
p20
tp21
Rp22
tp23
sS'probability'
p24
(g2
(g6
S'\xfe\xff\x7f?'
p25
tp26
Rp27
tp28
sS'color'
p29
(g2
(g3
(S'f8'
p30
I0
I1
tp31
Rp32
(I3
S'<'
p33
NNNI-1
I-1
I0
tp34
bS'VVVVVV\xe6?'
p35
tp36
Rp37
g2
(g32
S'\xfc\xfb\xfb\xfb\xfb\xfb\xeb?'
p38
tp39
Rp40
g2
(g32
S'QQQQQQ\xe1?'
p41
tp42
Rp43
F1.0
tp44
sS'rotation'
p45
(g2
(g6
S'i\xe5\x87;'
p46
tp47
Rp48
g2
(g6
S'\\\xc1\x1a='
p49
tp50
Rp51
g2
(g6
S'\xbdQ\xb2\xba'
p52
tp53
Rp54
g2
(g6
S'\x95\xd0\x7f?'
p55
tp56
Rp57
tp58
sS'size'
p59
(g2
(g6
S'\xbd\xc7\xf5<'
p60
tp61
Rp62
g2
(g6
S'\xc4\xe6\xb0>'
p63
tp64
Rp65
g2
(g6
S'\xe4\xdb\xf5<'
p66
tp67
Rp68
tp69
sS'location'
p70
(g2
(g6
S'\x8c\xf4\x0b>'
p71
tp72
Rp73
g2
(g6
S'\x8f\x00\x03\xbe'
p74
tp75
Rp76
g2
(g6
S'H\xb80\xbe'
p77
tp78
Rp79
tp80
s.