(dp0
S'shape'
p1
(cnumpy.core.multiarray
scalar
p2
(cnumpy
dtype
p3
(S'f4'
p4
I0
I1
tp5
Rp6
(I3
S'<'
p7
NNNI-1
I-1
I0
tp8
bS'\x16\x81\xe3>'
p9
tp10
Rp11
g2
(g6
S'%\x0b\x19?'
p12
tp13
Rp14
tp15
sS'tapering'
p16
(g2
(g6
S'U\xa2g>'
p17
tp18
Rp19
g2
(g6
S'\xb4\x887>'
p20
tp21
Rp22
tp23
sS'probability'
p24
(g2
(g6
S'\xee\xff\x7f?'
p25
tp26
Rp27
tp28
sS'color'
p29
(g2
(g3
(S'f8'
p30
I0
I1
tp31
Rp32
(I3
S'<'
p33
NNNI-1
I-1
I0
tp34
bS'\x1f\x1f\x1f\x1f\x1f\x1f\xbf?'
p35
tp36
Rp37
g2
(g32
S'\x1e\x1e\x1e\x1e\x1e\x1e\xde?'
p38
tp39
Rp40
g2
(g32
S'\x97\x96\x96\x96\x96\x96\xe6?'
p41
tp42
Rp43
F1.0
tp44
sS'rotation'
p45
(g2
(g6
S'\xff\xd7\xb2\xbe'
p46
tp47
Rp48
g2
(g6
S'\xab\xfa">'
p49
tp50
Rp51
g2
(g6
S'\xd1.J?'
p52
tp53
Rp54
g2
(g6
S'm\xf6\xf4\xbe'
p55
tp56
Rp57
tp58
sS'size'
p59
(g2
(g6
S'\xce\xe8%>'
p60
tp61
Rp62
g2
(g6
S'F\xb9\xf6<'
p63
tp64
Rp65
g2
(g6
S'\xb8\xe4\xad='
p66
tp67
Rp68
tp69
sS'location'
p70
(g2
(g6
S'\xfc\xa4$\xbd'
p71
tp72
Rp73
g2
(g6
S'W.\x17>'
p74
tp75
Rp76
g2
(g6
S'\x8b\x9f\x8e='
p77
tp78
Rp79
tp80
s.