(dp0
S'shape'
p1
(cnumpy.core.multiarray
scalar
p2
(cnumpy
dtype
p3
(S'f4'
p4
I0
I1
tp5
Rp6
(I3
S'<'
p7
NNNI-1
I-1
I0
tp8
bS'\xe8\x87\xae?'
p9
tp10
Rp11
g2
(g6
S'\xc2\xe7\xad?'
p12
tp13
Rp14
tp15
sS'tapering'
p16
(g2
(g6
S'P\xef >'
p17
tp18
Rp19
g2
(g6
S'_\tf\xbd'
p20
tp21
Rp22
tp23
sS'probability'
p24
(g2
(g6
S'u$\x023'
p25
tp26
Rp27
tp28
sS'color'
p29
NsS'rotation'
p30
(g2
(g6
S'(\xdc\xfc>'
p31
tp32
Rp33
g2
(g6
S'E\xa5"\xbf'
p34
tp35
Rp36
g2
(g6
S'\x00\x03\x17?'
p37
tp38
Rp39
g2
(g6
S'\xc3\x03\x89\xbd'
p40
tp41
Rp42
tp43
sS'size'
p44
(g2
(g6
S'7\xad\x07?'
p45
tp46
Rp47
g2
(g6
S'=\xad\x07?'
p48
tp49
Rp50
g2
(g6
S'@\xad\x07?'
p51
tp52
Rp53
tp54
sS'location'
p55
(g2
(g6
S'\x84\x80K\xbc'
p56
tp57
Rp58
g2
(g6
S'\xcc\xf8.\xbd'
p59
tp60
Rp61
g2
(g6
S'\xfb\x10.<'
p62
tp63
Rp64
tp65
s.