(dp0
S'shape'
p1
(cnumpy.core.multiarray
scalar
p2
(cnumpy
dtype
p3
(S'f4'
p4
I0
I1
tp5
Rp6
(I3
S'<'
p7
NNNI-1
I-1
I0
tp8
bS'\xb1U\xb0?'
p9
tp10
Rp11
g2
(g6
S'\xcd\r\xa8?'
p12
tp13
Rp14
tp15
sS'tapering'
p16
(g2
(g6
S':\xc6\xb9\xbe'
p17
tp18
Rp19
g2
(g6
S'_\x98U>'
p20
tp21
Rp22
tp23
sS'probability'
p24
(g2
(g6
S'/\x8a\xe62'
p25
tp26
Rp27
tp28
sS'color'
p29
NsS'rotation'
p30
(g2
(g6
S'\x0ep\xfa>'
p31
tp32
Rp33
g2
(g6
S'\x15\xb87='
p34
tp35
Rp36
g2
(g6
S'ze0?'
p37
tp38
Rp39
g2
(g6
S'\xe9i\x08\xbf'
p40
tp41
Rp42
tp43
sS'size'
p44
(g2
(g6
S'@\xad\x07?'
p45
tp46
Rp47
g2
(g6
S'E\xad\x07?'
p48
tp49
Rp50
g2
(g6
S'S\xad\x07?'
p51
tp52
Rp53
tp54
sS'location'
p55
(g2
(g6
S'\xbe|\xe5\xbb'
p56
tp57
Rp58
g2
(g6
S'x|\x85\xbd'
p59
tp60
Rp61
g2
(g6
S'5F\xcd<'
p62
tp63
Rp64
tp65
s.