(dp0
S'shape'
p1
(cnumpy.core.multiarray
scalar
p2
(cnumpy
dtype
p3
(S'f4'
p4
I0
I1
tp5
Rp6
(I3
S'<'
p7
NNNI-1
I-1
I0
tp8
bS'd\xd2\xcc>'
p9
tp10
Rp11
g2
(g6
S'\x1a=\xd4>'
p12
tp13
Rp14
tp15
sS'tapering'
p16
(g2
(g6
S'2v\xeb='
p17
tp18
Rp19
g2
(g6
S'D\xa0 >'
p20
tp21
Rp22
tp23
sS'probability'
p24
(g2
(g6
S'\xf8\xff\x7f?'
p25
tp26
Rp27
tp28
sS'color'
p29
NsS'rotation'
p30
(g2
(g6
S'\x9ey$\xbf'
p31
tp32
Rp33
g2
(g6
S'3\x11\xfe\xbe'
p34
tp35
Rp36
g2
(g6
S'&\x90\xdb>'
p37
tp38
Rp39
g2
(g6
S'C\xec\xca\xbe'
p40
tp41
Rp42
tp43
sS'size'
p44
(g2
(g6
S'\xe9Y\x16>'
p45
tp46
Rp47
g2
(g6
S'&A\xa7='
p48
tp49
Rp50
g2
(g6
S'j;\xf6<'
p51
tp52
Rp53
tp54
sS'location'
p55
(g2
(g6
S't\x069\xbe'
p56
tp57
Rp58
g2
(g6
S'\x97/v\xbd'
p59
tp60
Rp61
g2
(g6
S'\x9f\x8f\x06\xbe'
p62
tp63
Rp64
tp65
s.