(dp0
S'shape'
p1
(cnumpy.core.multiarray
scalar
p2
(cnumpy
dtype
p3
(S'f4'
p4
I0
I1
tp5
Rp6
(I3
S'<'
p7
NNNI-1
I-1
I0
tp8
bS'\x0c\xb3\xce>'
p9
tp10
Rp11
g2
(g6
S'U\xa5\xcd>'
p12
tp13
Rp14
tp15
sS'tapering'
p16
(g2
(g6
S'\x81L%?'
p17
tp18
Rp19
g2
(g6
S'\x8aj\x00>'
p20
tp21
Rp22
tp23
sS'probability'
p24
(g2
(g6
S'\xf2\xff\x7f?'
p25
tp26
Rp27
tp28
sS'color'
p29
NsS'rotation'
p30
(g2
(g6
S'\x02S\t\xbd'
p31
tp32
Rp33
g2
(g6
S'\xbf\x8f{?'
p34
tp35
Rp36
g2
(g6
S"'\x98\xba\xbd"
p37
tp38
Rp39
g2
(g6
S'0\xbf!\xbe'
p40
tp41
Rp42
tp43
sS'size'
p44
(g2
(g6
S'\rZ\xf6<'
p45
tp46
Rp47
g2
(g6
S'\xcc\x8b\x1d>'
p48
tp49
Rp50
g2
(g6
S'\x10\xdf\xd3='
p51
tp52
Rp53
tp54
sS'location'
p55
(g2
(g6
S'NI\xc4='
p56
tp57
Rp58
g2
(g6
S'O?\x15\xbe'
p59
tp60
Rp61
g2
(g6
S'\xad>\xb4<'
p62
tp63
Rp64
tp65
s.