(dp0
S'shape'
p1
(cnumpy.core.multiarray
scalar
p2
(cnumpy
dtype
p3
(S'f4'
p4
I0
I1
tp5
Rp6
(I3
S'<'
p7
NNNI-1
I-1
I0
tp8
bS'\x0c0\xdf>'
p9
tp10
Rp11
g2
(g6
S'\xa6s??'
p12
tp13
Rp14
tp15
sS'tapering'
p16
(g2
(g6
S'\x8b\x85\xc5\xbd'
p17
tp18
Rp19
g2
(g6
S'\x15>\xd9>'
p20
tp21
Rp22
tp23
sS'probability'
p24
(g2
(g6
S'\xe8\xff\x7f?'
p25
tp26
Rp27
tp28
sS'color'
p29
NsS'rotation'
p30
(g2
(g6
S'\xd6@\xf8\xbe'
p31
tp32
Rp33
g2
(g6
S'\xd9\x07\x19?'
p34
tp35
Rp36
g2
(g6
S'\xa9\xb2\xc9>'
p37
tp38
Rp39
g2
(g6
S'S\x9b\x00\xbf'
p40
tp41
Rp42
tp43
sS'size'
p44
(g2
(g6
S'2p\x1f>'
p45
tp46
Rp47
g2
(g6
S'/\n\xfa<'
p48
tp49
Rp50
g2
(g6
S'\x98b\xf5='
p51
tp52
Rp53
tp54
sS'location'
p55
(g2
(g6
S'bO4>'
p56
tp57
Rp58
g2
(g6
S'\x19\xf7}='
p59
tp60
Rp61
g2
(g6
S'\xd7\x98\x92='
p62
tp63
Rp64
tp65
s.