(dp0
S'shape'
p1
(cnumpy.core.multiarray
scalar
p2
(cnumpy
dtype
p3
(S'f4'
p4
I0
I1
tp5
Rp6
(I3
S'<'
p7
NNNI-1
I-1
I0
tp8
bS'\xa5\xd3\xcc>'
p9
tp10
Rp11
g2
(g6
S'PRx?'
p12
tp13
Rp14
tp15
sS'tapering'
p16
(g2
(g6
S'\xc0\x0f~>'
p17
tp18
Rp19
g2
(g6
S'\xf3\xd3\xb5='
p20
tp21
Rp22
tp23
sS'probability'
p24
(g2
(g6
S'\xea\xff\x7f?'
p25
tp26
Rp27
tp28
sS'color'
p29
NsS'rotation'
p30
(g2
(g6
S'\rW{<'
p31
tp32
Rp33
g2
(g6
S'R\xa54\xbf'
p34
tp35
Rp36
g2
(g6
S'hT5?'
p37
tp38
Rp39
g2
(g6
S'\x02\xd5+\xbc'
p40
tp41
Rp42
tp43
sS'size'
p44
(g2
(g6
S'\xa6\x01\xf6<'
p45
tp46
Rp47
g2
(g6
S'-\x18)>'
p48
tp49
Rp50
g2
(g6
S'\x87\x01/>'
p51
tp52
Rp53
tp54
sS'location'
p55
(g2
(g6
S'\xb20\x9a\xbb'
p56
tp57
Rp58
g2
(g6
S'5\xe1\xe0\xbc'
p59
tp60
Rp61
g2
(g6
S'\xbb3\x05\xbd'
p62
tp63
Rp64
tp65
s.