(dp0
S'shape'
p1
(cnumpy.core.multiarray
scalar
p2
(cnumpy
dtype
p3
(S'f4'
p4
I0
I1
tp5
Rp6
(I3
S'<'
p7
NNNI-1
I-1
I0
tp8
bS'@\xce\xcc>'
p9
tp10
Rp11
g2
(g6
S'NV\xab?'
p12
tp13
Rp14
tp15
sS'tapering'
p16
(g2
(g6
S'2\xdf-\xbd'
p17
tp18
Rp19
g2
(g6
S'\n\x8e\xab\xbb'
p20
tp21
Rp22
tp23
sS'probability'
p24
(g2
(g6
S'\xe4\xff\x7f?'
p25
tp26
Rp27
tp28
sS'color'
p29
NsS'rotation'
p30
(g2
(g6
S'\x1eC\xd9:'
p31
tp32
Rp33
g2
(g6
S'e*\x15\xbc'
p34
tp35
Rp36
g2
(g6
S'4\x162\xbb'
p37
tp38
Rp39
g2
(g6
S'\xf3\xfc\x7f?'
p40
tp41
Rp42
tp43
sS'size'
p44
(g2
(g6
S'\xc4\xca\x0c>'
p45
tp46
Rp47
g2
(g6
S'\x07\x95\xf9<'
p48
tp49
Rp50
g2
(g6
S'\xe3\xf3:>'
p51
tp52
Rp53
tp54
sS'location'
p55
(g2
(g6
S'#\xdbd;'
p56
tp57
Rp58
g2
(g6
S'2\xd1\x9a\xbd'
p59
tp60
Rp61
g2
(g6
S'\x90\xe6\xcc\xbc'
p62
tp63
Rp64
tp65
s.