(dp0
S'shape'
p1
(cnumpy.core.multiarray
scalar
p2
(cnumpy
dtype
p3
(S'f4'
p4
I0
I1
tp5
Rp6
(I3
S'<'
p7
NNNI-1
I-1
I0
tp8
bS'd\x07\xe3>'
p9
tp10
Rp11
g2
(g6
S'V\x11\x18?'
p12
tp13
Rp14
tp15
sS'tapering'
p16
(g2
(g6
S'\x1fj!\xbd'
p17
tp18
Rp19
g2
(g6
S'\xb9\xc4\xa2>'
p20
tp21
Rp22
tp23
sS'probability'
p24
(g2
(g6
S'\xee\xff\x7f?'
p25
tp26
Rp27
tp28
sS'color'
p29
NsS'rotation'
p30
(g2
(g6
S'r[\x00\xbf'
p31
tp32
Rp33
g2
(g6
S'dC\xc2>'
p34
tp35
Rp36
g2
(g6
S'EQ\x1f?'
p37
tp38
Rp39
g2
(g6
S'\xed\xb1\xee\xbe'
p40
tp41
Rp42
tp43
sS'size'
p44
(g2
(g6
S'\x19\x9e%>'
p45
tp46
Rp47
g2
(g6
S'\x99\x8c\xf8<'
p48
tp49
Rp50
g2
(g6
S'M8\x03>'
p51
tp52
Rp53
tp54
sS'location'
p55
(g2
(g6
S'S\xbd!\xbe'
p56
tp57
Rp58
g2
(g6
S'}\xd8\x83='
p59
tp60
Rp61
g2
(g6
S'\x9d\xe1\xc5='
p62
tp63
Rp64
tp65
s.