(dp0
S'shape'
p1
(cnumpy.core.multiarray
scalar
p2
(cnumpy
dtype
p3
(S'f4'
p4
I0
I1
tp5
Rp6
(I3
S'<'
p7
NNNI-1
I-1
I0
tp8
bS'\xd32\xbe?'
p9
tp10
Rp11
g2
(g6
S'\xdc]\xd8>'
p12
tp13
Rp14
tp15
sS'tapering'
p16
(g2
(g6
S'\xb6\x96 ?'
p17
tp18
Rp19
g2
(g6
S'(\xb5\xe1\xbe'
p20
tp21
Rp22
tp23
sS'probability'
p24
(g2
(g6
S'\xfe\xff\x7f?'
p25
tp26
Rp27
tp28
sS'color'
p29
(g2
(g3
(S'f8'
p30
I0
I1
tp31
Rp32
(I3
S'<'
p33
NNNI-1
I-1
I0
tp34
bS'||||||\xec?'
p35
tp36
Rp37
g2
(g32
S'\x1a\x1a\x1a\x1a\x1a\x1a\xba?'
p38
tp39
Rp40
g2
(g32
S'\x1c\x1c\x1c\x1c\x1c\x1c\xbc?'
p41
tp42
Rp43
F1.0
tp44
sS'rotation'
p45
(g2
(g6
S'\x87\xed\xaf\xbc'
p46
tp47
Rp48
g2
(g6
S'\xe9`y?'
p49
tp50
Rp51
g2
(g6
S'\xec\x86\x1e<'
p52
tp53
Rp54
g2
(g6
S'\x13!f\xbe'
p55
tp56
Rp57
tp58
sS'size'
p59
(g2
(g6
S'\xd1\xc5\xf5<'
p60
tp61
Rp62
g2
(g6
S'\x04[\xc6>'
p63
tp64
Rp65
g2
(g6
S'\xeb\xe9\xf5<'
p66
tp67
Rp68
tp69
sS'location'
p70
(g2
(g6
S'O\xe7\x03>'
p71
tp72
Rp73
g2
(g6
S'\xc7\x1c\x95\xbd'
p74
tp75
Rp76
g2
(g6
S'\xb2\xdd\x12>'
p77
tp78
Rp79
tp80
s.