(dp0
S'shape'
p1
(cnumpy.core.multiarray
scalar
p2
(cnumpy
dtype
p3
(S'f4'
p4
I0
I1
tp5
Rp6
(I3
S'<'
p7
NNNI-1
I-1
I0
tp8
bS'\x93\\\xcd>'
p9
tp10
Rp11
g2
(g6
S'\xe4\x06Y?'
p12
tp13
Rp14
tp15
sS'tapering'
p16
(g2
(g6
S'i\xf1\x93='
p17
tp18
Rp19
g2
(g6
S'2)l<'
p20
tp21
Rp22
tp23
sS'probability'
p24
(g2
(g6
S'\xe6\xff\x7f?'
p25
tp26
Rp27
tp28
sS'color'
p29
(g2
(g3
(S'f8'
p30
I0
I1
tp31
Rp32
(I3
S'<'
p33
NNNI-1
I-1
I0
tp34
bS'\x9a\x99\x99\x99\x99\x99\xc9?'
p35
tp36
Rp37
g2
(g32
S'\x14\x14\x14\x14\x14\x14\xe4?'
p38
tp39
Rp40
g2
(g32
S'\x16\x16\x16\x16\x16\x16\xc6?'
p41
tp42
Rp43
F1.0
tp44
sS'rotation'
p45
(g2
(g6
S'\x01\xee3\xbf'
p46
tp47
Rp48
g2
(g6
S':a\x06='
p49
tp50
Rp51
g2
(g6
S'\x03\xd45?'
p52
tp53
Rp54
g2
(g6
S'\xd0%\xad<'
p55
tp56
Rp57
tp58
sS'size'
p59
(g2
(g6
S'"?\xf6<'
p60
tp61
Rp62
g2
(g6
S'\x80\x10\xcb='
p63
tp64
Rp65
g2
(g6
S'C\x166>'
p66
tp67
Rp68
tp69
sS'location'
p70
(g2
(g6
S'i\xd6\xec;'
p71
tp72
Rp73
g2
(g6
S'\x9d\xff\xb0>'
p74
tp75
Rp76
g2
(g6
S'b\x9f\x10>'
p77
tp78
Rp79
tp80
s.